target datalayout = "e-m:e-p270:32:32-p271:32:32-p272:64:64-i64:64-i128:128-f80:128-n8:16:32:64-S128"
target triple = "x86_64-pc-linux-gnu"

%struct.hb_font_t = type { %struct.hb_object_header_t, i32, i32, ptr, ptr, i32, i32, float, float, i8, i32, i32, float, float, float, float, i64, i64, i32, i32, float, i32, i32, ptr, ptr, ptr, ptr, ptr, %struct.hb_shaper_object_dataset_t }
%struct.hb_object_header_t = type { %struct.hb_reference_count_t, %struct.hb_atomic_int_t, %struct.hb_atomic_ptr_t }
%struct.hb_reference_count_t = type { %struct.hb_atomic_int_t }
%struct.hb_atomic_int_t = type { i32 }
%struct.hb_atomic_ptr_t = type { ptr }
%struct.hb_shaper_object_dataset_t = type { ptr, %struct.hb_shaper_lazy_loader_t, %struct.hb_shaper_lazy_loader_t.1 }
%struct.hb_shaper_lazy_loader_t = type { %struct.hb_lazy_loader_t }
%struct.hb_lazy_loader_t = type { %struct.hb_atomic_ptr_t.0 }
%struct.hb_atomic_ptr_t.0 = type { ptr }
%struct.hb_shaper_lazy_loader_t.1 = type { %struct.hb_lazy_loader_t.2 }
%struct.hb_lazy_loader_t.2 = type { %struct.hb_atomic_ptr_t.4 }
%struct.hb_atomic_ptr_t.4 = type { ptr }
%struct.hb_face_t = type { %struct.hb_object_header_t, ptr, ptr, ptr, i32, %struct.hb_atomic_int_t, %struct.hb_atomic_int_t, %struct.hb_shaper_object_dataset_t.5, %struct.hb_ot_face_t, %struct.hb_atomic_ptr_t.147 }
%struct.hb_shaper_object_dataset_t.5 = type { ptr, %struct.hb_shaper_lazy_loader_t.6, %struct.hb_shaper_lazy_loader_t.10 }
%struct.hb_shaper_lazy_loader_t.6 = type { %struct.hb_lazy_loader_t.7 }
%struct.hb_lazy_loader_t.7 = type { %struct.hb_atomic_ptr_t.9 }
%struct.hb_atomic_ptr_t.9 = type { ptr }
%struct.hb_shaper_lazy_loader_t.10 = type { %struct.hb_lazy_loader_t.11 }
%struct.hb_lazy_loader_t.11 = type { %struct.hb_atomic_ptr_t.13 }
%struct.hb_atomic_ptr_t.13 = type { ptr }
%struct.hb_ot_face_t = type { ptr, %struct.hb_table_lazy_loader_t, %struct.hb_table_lazy_loader_t.16, %struct.hb_face_lazy_loader_t, %struct.hb_table_lazy_loader_t.21, %struct.hb_face_lazy_loader_t.24, %struct.hb_table_lazy_loader_t.28, %struct.hb_face_lazy_loader_t.31, %struct.hb_face_lazy_loader_t.35, %struct.hb_table_lazy_loader_t.39, %struct.hb_face_lazy_loader_t.42, %struct.hb_table_lazy_loader_t.46, %struct.hb_face_lazy_loader_t.49, %struct.hb_table_lazy_loader_t.53, %struct.hb_table_lazy_loader_t.56, %struct.hb_face_lazy_loader_t.59, %struct.hb_face_lazy_loader_t.63, %struct.hb_face_lazy_loader_t.67, %struct.hb_table_lazy_loader_t.71, %struct.hb_table_lazy_loader_t.74, %struct.hb_table_lazy_loader_t.77, %struct.hb_face_lazy_loader_t.80, %struct.hb_table_lazy_loader_t.84, %struct.hb_table_lazy_loader_t.87, %struct.hb_face_lazy_loader_t.90, %struct.hb_face_lazy_loader_t.94, %struct.hb_face_lazy_loader_t.98, %struct.hb_table_lazy_loader_t.102, %struct.hb_table_lazy_loader_t.105, %struct.hb_table_lazy_loader_t.108, %struct.hb_table_lazy_loader_t.111, %struct.hb_table_lazy_loader_t.114, %struct.hb_table_lazy_loader_t.117, %struct.hb_table_lazy_loader_t.120, %struct.hb_table_lazy_loader_t.123, %struct.hb_table_lazy_loader_t.126, %struct.hb_table_lazy_loader_t.129, %struct.hb_face_lazy_loader_t.132, %struct.hb_face_lazy_loader_t.136, %struct.hb_face_lazy_loader_t.140, %struct.hb_table_lazy_loader_t.144 }
%struct.hb_table_lazy_loader_t = type { %struct.hb_lazy_loader_t.14 }
%struct.hb_lazy_loader_t.14 = type { %struct.hb_atomic_ptr_t.15 }
%struct.hb_atomic_ptr_t.15 = type { ptr }
%struct.hb_table_lazy_loader_t.16 = type { %struct.hb_lazy_loader_t.17 }
%struct.hb_lazy_loader_t.17 = type { %struct.hb_atomic_ptr_t.15 }
%struct.hb_face_lazy_loader_t = type { %struct.hb_lazy_loader_t.18 }
%struct.hb_lazy_loader_t.18 = type { %struct.hb_atomic_ptr_t.20 }
%struct.hb_atomic_ptr_t.20 = type { ptr }
%struct.hb_table_lazy_loader_t.21 = type { %struct.hb_lazy_loader_t.22 }
%struct.hb_lazy_loader_t.22 = type { %struct.hb_atomic_ptr_t.15 }
%struct.hb_face_lazy_loader_t.24 = type { %struct.hb_lazy_loader_t.25 }
%struct.hb_lazy_loader_t.25 = type { %struct.hb_atomic_ptr_t.27 }
%struct.hb_atomic_ptr_t.27 = type { ptr }
%struct.hb_table_lazy_loader_t.28 = type { %struct.hb_lazy_loader_t.29 }
%struct.hb_lazy_loader_t.29 = type { %struct.hb_atomic_ptr_t.15 }
%struct.hb_face_lazy_loader_t.31 = type { %struct.hb_lazy_loader_t.32 }
%struct.hb_lazy_loader_t.32 = type { %struct.hb_atomic_ptr_t.34 }
%struct.hb_atomic_ptr_t.34 = type { ptr }
%struct.hb_face_lazy_loader_t.35 = type { %struct.hb_lazy_loader_t.36 }
%struct.hb_lazy_loader_t.36 = type { %struct.hb_atomic_ptr_t.38 }
%struct.hb_atomic_ptr_t.38 = type { ptr }
%struct.hb_table_lazy_loader_t.39 = type { %struct.hb_lazy_loader_t.40 }
%struct.hb_lazy_loader_t.40 = type { %struct.hb_atomic_ptr_t.15 }
%struct.hb_face_lazy_loader_t.42 = type { %struct.hb_lazy_loader_t.43 }
%struct.hb_lazy_loader_t.43 = type { %struct.hb_atomic_ptr_t.45 }
%struct.hb_atomic_ptr_t.45 = type { ptr }
%struct.hb_table_lazy_loader_t.46 = type { %struct.hb_lazy_loader_t.47 }
%struct.hb_lazy_loader_t.47 = type { %struct.hb_atomic_ptr_t.15 }
%struct.hb_face_lazy_loader_t.49 = type { %struct.hb_lazy_loader_t.50 }
%struct.hb_lazy_loader_t.50 = type { %struct.hb_atomic_ptr_t.52 }
%struct.hb_atomic_ptr_t.52 = type { ptr }
%struct.hb_table_lazy_loader_t.53 = type { %struct.hb_lazy_loader_t.54 }
%struct.hb_lazy_loader_t.54 = type { %struct.hb_atomic_ptr_t.15 }
%struct.hb_table_lazy_loader_t.56 = type { %struct.hb_lazy_loader_t.57 }
%struct.hb_lazy_loader_t.57 = type { %struct.hb_atomic_ptr_t.15 }
%struct.hb_face_lazy_loader_t.59 = type { %struct.hb_lazy_loader_t.60 }
%struct.hb_lazy_loader_t.60 = type { %struct.hb_atomic_ptr_t.62 }
%struct.hb_atomic_ptr_t.62 = type { ptr }
%struct.hb_face_lazy_loader_t.63 = type { %struct.hb_lazy_loader_t.64 }
%struct.hb_lazy_loader_t.64 = type { %struct.hb_atomic_ptr_t.66 }
%struct.hb_atomic_ptr_t.66 = type { ptr }
%struct.hb_face_lazy_loader_t.67 = type { %struct.hb_lazy_loader_t.68 }
%struct.hb_lazy_loader_t.68 = type { %struct.hb_atomic_ptr_t.70 }
%struct.hb_atomic_ptr_t.70 = type { ptr }
%struct.hb_table_lazy_loader_t.71 = type { %struct.hb_lazy_loader_t.72 }
%struct.hb_lazy_loader_t.72 = type { %struct.hb_atomic_ptr_t.15 }
%struct.hb_table_lazy_loader_t.74 = type { %struct.hb_lazy_loader_t.75 }
%struct.hb_lazy_loader_t.75 = type { %struct.hb_atomic_ptr_t.15 }
%struct.hb_table_lazy_loader_t.77 = type { %struct.hb_lazy_loader_t.78 }
%struct.hb_lazy_loader_t.78 = type { %struct.hb_atomic_ptr_t.15 }
%struct.hb_face_lazy_loader_t.80 = type { %struct.hb_lazy_loader_t.81 }
%struct.hb_lazy_loader_t.81 = type { %struct.hb_atomic_ptr_t.83 }
%struct.hb_atomic_ptr_t.83 = type { ptr }
%struct.hb_table_lazy_loader_t.84 = type { %struct.hb_lazy_loader_t.85 }
%struct.hb_lazy_loader_t.85 = type { %struct.hb_atomic_ptr_t.15 }
%struct.hb_table_lazy_loader_t.87 = type { %struct.hb_lazy_loader_t.88 }
%struct.hb_lazy_loader_t.88 = type { %struct.hb_atomic_ptr_t.15 }
%struct.hb_face_lazy_loader_t.90 = type { %struct.hb_lazy_loader_t.91 }
%struct.hb_lazy_loader_t.91 = type { %struct.hb_atomic_ptr_t.93 }
%struct.hb_atomic_ptr_t.93 = type { ptr }
%struct.hb_face_lazy_loader_t.94 = type { %struct.hb_lazy_loader_t.95 }
%struct.hb_lazy_loader_t.95 = type { %struct.hb_atomic_ptr_t.97 }
%struct.hb_atomic_ptr_t.97 = type { ptr }
%struct.hb_face_lazy_loader_t.98 = type { %struct.hb_lazy_loader_t.99 }
%struct.hb_lazy_loader_t.99 = type { %struct.hb_atomic_ptr_t.101 }
%struct.hb_atomic_ptr_t.101 = type { ptr }
%struct.hb_table_lazy_loader_t.102 = type { %struct.hb_lazy_loader_t.103 }
%struct.hb_lazy_loader_t.103 = type { %struct.hb_atomic_ptr_t.15 }
%struct.hb_table_lazy_loader_t.105 = type { %struct.hb_lazy_loader_t.106 }
%struct.hb_lazy_loader_t.106 = type { %struct.hb_atomic_ptr_t.15 }
%struct.hb_table_lazy_loader_t.108 = type { %struct.hb_lazy_loader_t.109 }
%struct.hb_lazy_loader_t.109 = type { %struct.hb_atomic_ptr_t.15 }
%struct.hb_table_lazy_loader_t.111 = type { %struct.hb_lazy_loader_t.112 }
%struct.hb_lazy_loader_t.112 = type { %struct.hb_atomic_ptr_t.15 }
%struct.hb_table_lazy_loader_t.114 = type { %struct.hb_lazy_loader_t.115 }
%struct.hb_lazy_loader_t.115 = type { %struct.hb_atomic_ptr_t.15 }
%struct.hb_table_lazy_loader_t.117 = type { %struct.hb_lazy_loader_t.118 }
%struct.hb_lazy_loader_t.118 = type { %struct.hb_atomic_ptr_t.15 }
%struct.hb_table_lazy_loader_t.120 = type { %struct.hb_lazy_loader_t.121 }
%struct.hb_lazy_loader_t.121 = type { %struct.hb_atomic_ptr_t.15 }
%struct.hb_table_lazy_loader_t.123 = type { %struct.hb_lazy_loader_t.124 }
%struct.hb_lazy_loader_t.124 = type { %struct.hb_atomic_ptr_t.15 }
%struct.hb_table_lazy_loader_t.126 = type { %struct.hb_lazy_loader_t.127 }
%struct.hb_lazy_loader_t.127 = type { %struct.hb_atomic_ptr_t.15 }
%struct.hb_table_lazy_loader_t.129 = type { %struct.hb_lazy_loader_t.130 }
%struct.hb_lazy_loader_t.130 = type { %struct.hb_atomic_ptr_t.15 }
%struct.hb_face_lazy_loader_t.132 = type { %struct.hb_lazy_loader_t.133 }
%struct.hb_lazy_loader_t.133 = type { %struct.hb_atomic_ptr_t.135 }
%struct.hb_atomic_ptr_t.135 = type { ptr }
%struct.hb_face_lazy_loader_t.136 = type { %struct.hb_lazy_loader_t.137 }
%struct.hb_lazy_loader_t.137 = type { %struct.hb_atomic_ptr_t.139 }
%struct.hb_atomic_ptr_t.139 = type { ptr }
%struct.hb_face_lazy_loader_t.140 = type { %struct.hb_lazy_loader_t.141 }
%struct.hb_lazy_loader_t.141 = type { %struct.hb_atomic_ptr_t.143 }
%struct.hb_atomic_ptr_t.143 = type { ptr }
%struct.hb_table_lazy_loader_t.144 = type { %struct.hb_lazy_loader_t.145 }
%struct.hb_lazy_loader_t.145 = type { %struct.hb_atomic_ptr_t.15 }
%struct.hb_atomic_ptr_t.147 = type { ptr }
%struct.hb_array_t = type { ptr, i32, i32 }
%struct.hb_blob_t = type { %struct.hb_object_header_t, ptr, i32, i32, ptr, ptr }

@_hb_NullPool = external constant [80 x i64], align 16

; Function Attrs: mustprogress nounwind uwtable
define linkonce_odr hidden noundef nonnull align 1 dereferenceable(13) ptr @_ZN4NullIN2OT4MVAREE8get_nullEv() #1 comdat align 2 {
  ret ptr @_hb_NullPool
}

; Function Attrs: mustprogress uwtable
define linkonce_odr hidden noundef nonnull align 1 dereferenceable(13) ptr @_ZN10NullHelperIN2OT4MVAREE8get_nullEv() #0 comdat align 2 {
  %1 = call noundef nonnull align 1 dereferenceable(13) ptr @_ZN4NullIN2OT4MVAREE8get_nullEv()
  ret ptr %1
}

; Function Attrs: mustprogress nounwind uwtable
define linkonce_odr hidden void @_ZN10hb_array_tIKcEC2EPS0_j(ptr noundef nonnull align 8 dereferenceable(16) %0, ptr noundef %1, i32 noundef %2) unnamed_addr #1 comdat align 2 {
  %4 = alloca ptr, align 8
  %5 = alloca ptr, align 8
  %6 = alloca i32, align 4
  store ptr %0, ptr %4, align 8
  store ptr %1, ptr %5, align 8
  store i32 %2, ptr %6, align 4
  %7 = load ptr, ptr %4, align 8
  %8 = getelementptr inbounds %struct.hb_array_t, ptr %7, i32 0, i32 0
  %9 = load ptr, ptr %5, align 8
  store ptr %9, ptr %8, align 8
  %10 = getelementptr inbounds %struct.hb_array_t, ptr %7, i32 0, i32 1
  %11 = load i32, ptr %6, align 4
  store i32 %11, ptr %10, align 8
  %12 = getelementptr inbounds %struct.hb_array_t, ptr %7, i32 0, i32 2
  store i32 0, ptr %12, align 4
  ret void
}

; Function Attrs: mustprogress uwtable
define linkonce_odr hidden noundef ptr @_ZNK10hb_array_tIKcE2asIN2OT4MVARELj1ETnPN12hb_enable_ifIXeqT0_Li1EEvE4typeELPv0EEEPKT_v(ptr noundef nonnull align 8 dereferenceable(16) %0) #0 comdat align 2 {
  %2 = alloca ptr, align 8
  store ptr %0, ptr %2, align 8
  %3 = load ptr, ptr %2, align 8
  %4 = getelementptr inbounds %struct.hb_array_t, ptr %3, i32 0, i32 1
  %5 = load i32, ptr %4, align 8
  %6 = icmp ult i32 %5, 12
  br i1 %6, label %7, label %9

7:                                                ; preds = %1
  %8 = call noundef nonnull align 1 dereferenceable(13) ptr @_ZN10NullHelperIN2OT4MVAREE8get_nullEv()
  br label %12

9:                                                ; preds = %1
  %10 = getelementptr inbounds %struct.hb_array_t, ptr %3, i32 0, i32 0
  %11 = load ptr, ptr %10, align 8
  br label %12

12:                                               ; preds = %9, %7
  %13 = phi ptr [ %8, %7 ], [ %11, %9 ]
  ret ptr %13
}

; Function Attrs: mustprogress uwtable
define linkonce_odr hidden { ptr, i64 } @_ZNK9hb_blob_t8as_bytesEv(ptr noundef nonnull align 8 dereferenceable(48) %0) #0 comdat align 2 {
  %2 = alloca %struct.hb_array_t, align 8
  %3 = alloca ptr, align 8
  store ptr %0, ptr %3, align 8
  %4 = load ptr, ptr %3, align 8
  %5 = getelementptr inbounds %struct.hb_blob_t, ptr %4, i32 0, i32 1
  %6 = load ptr, ptr %5, align 8
  %7 = getelementptr inbounds %struct.hb_blob_t, ptr %4, i32 0, i32 2
  %8 = load i32, ptr %7, align 8
  call void @_ZN10hb_array_tIKcEC2EPS0_j(ptr noundef nonnull align 8 dereferenceable(16) %2, ptr noundef %6, i32 noundef %8)
  %9 = load { ptr, i64 }, ptr %2, align 8
  ret { ptr, i64 } %9
}

; Function Attrs: mustprogress uwtable
define linkonce_odr hidden noundef ptr @_ZNK9hb_blob_t2asIN2OT4MVAREEEPKT_v(ptr noundef nonnull align 8 dereferenceable(48) %0) #0 comdat align 2 {
  %2 = alloca ptr, align 8
  %3 = alloca %struct.hb_array_t, align 8
  store ptr %0, ptr %2, align 8
  %4 = load ptr, ptr %2, align 8
  %5 = call { ptr, i64 } @_ZNK9hb_blob_t8as_bytesEv(ptr noundef nonnull align 8 dereferenceable(48) %4)
  %6 = getelementptr inbounds { ptr, i64 }, ptr %3, i32 0, i32 0
  %7 = extractvalue { ptr, i64 } %5, 0
  store ptr %7, ptr %6, align 8
  %8 = getelementptr inbounds { ptr, i64 }, ptr %3, i32 0, i32 1
  %9 = extractvalue { ptr, i64 } %5, 1
  store i64 %9, ptr %8, align 8
  %10 = call noundef ptr @_ZNK10hb_array_tIKcE2asIN2OT4MVARELj1ETnPN12hb_enable_ifIXeqT0_Li1EEvE4typeELPv0EEEPKT_v(ptr noundef nonnull align 8 dereferenceable(16) %3)
  ret ptr %10
}

; Function Attrs: mustprogress uwtable
define linkonce_odr hidden noundef ptr @_ZN22hb_table_lazy_loader_tIN2OT4MVARELj22ELb1EE7convertEPK9hb_blob_t(ptr noundef %0) #0 comdat align 2 {
  %2 = alloca ptr, align 8
  store ptr %0, ptr %2, align 8
  %3 = load ptr, ptr %2, align 8
  %4 = call noundef ptr @_ZNK9hb_blob_t2asIN2OT4MVAREEEPKT_v(ptr noundef nonnull align 8 dereferenceable(48) %3)
  ret ptr %4
}

; Function Attrs: mustprogress uwtable
define linkonce_odr hidden noundef ptr @_ZNK16hb_lazy_loader_tIN2OT4MVARE22hb_table_lazy_loader_tIS1_Lj22ELb1EE9hb_face_tLj22E9hb_blob_tE3getEv(ptr noundef nonnull align 8 dereferenceable(8) %0) #0 comdat align 2 {
  %2 = alloca ptr, align 8
  store ptr %0, ptr %2, align 8
  %3 = load ptr, ptr %2, align 8
  %4 = call noundef ptr @_ZNK16hb_lazy_loader_tIN2OT4MVARE22hb_table_lazy_loader_tIS1_Lj22ELb1EE9hb_face_tLj22E9hb_blob_tE10get_storedEv(ptr noundef nonnull align 8 dereferenceable(8) %3)
  %5 = call noundef ptr @_ZN22hb_table_lazy_loader_tIN2OT4MVARELj22ELb1EE7convertEPK9hb_blob_t(ptr noundef %4)
  ret ptr %5
}

; Function Attrs: mustprogress uwtable
define linkonce_odr hidden noundef ptr @_ZNK16hb_lazy_loader_tIN2OT4MVARE22hb_table_lazy_loader_tIS1_Lj22ELb1EE9hb_face_tLj22E9hb_blob_tEptEv(ptr noundef nonnull align 8 dereferenceable(8) %0) #0 comdat align 2 {
  %2 = alloca ptr, align 8
  store ptr %0, ptr %2, align 8
  %3 = load ptr, ptr %2, align 8
  %4 = call noundef ptr @_ZNK16hb_lazy_loader_tIN2OT4MVARE22hb_table_lazy_loader_tIS1_Lj22ELb1EE9hb_face_tLj22E9hb_blob_tE3getEv(ptr noundef nonnull align 8 dereferenceable(8) %3)
  ret ptr %4
}

; Function Attrs: mustprogress uwtable
define hidden float @hb_ot_metrics_get_variation(ptr noundef %0, i32 noundef %1) #0 {
  %3 = alloca ptr, align 8
  %4 = alloca i32, align 4
  store ptr %0, ptr %3, align 8
  store i32 %1, ptr %4, align 4
  %5 = load ptr, ptr %3, align 8
  %6 = getelementptr inbounds %struct.hb_font_t, ptr %5, i32 0, i32 4
  %7 = load ptr, ptr %6, align 8
  %8 = getelementptr inbounds %struct.hb_face_t, ptr %7, i32 0, i32 8
  %9 = getelementptr inbounds %struct.hb_ot_face_t, ptr %8, i32 0, i32 22
  %10 = call noundef ptr @_ZNK16hb_lazy_loader_tIN2OT4MVARE22hb_table_lazy_loader_tIS1_Lj22ELb1EE9hb_face_tLj22E9hb_blob_tEptEv(ptr noundef nonnull align 8 dereferenceable(8) %9)
  %11 = load i32, ptr %4, align 4
  %12 = load ptr, ptr %3, align 8
  %13 = getelementptr inbounds %struct.hb_font_t, ptr %12, i32 0, i32 23
  %14 = load ptr, ptr %13, align 8
  %15 = load ptr, ptr %3, align 8
  %16 = getelementptr inbounds %struct.hb_font_t, ptr %15, i32 0, i32 22
  %17 = load i32, ptr %16, align 8
  %18 = call noundef float @_ZNK2OT4MVAR7get_varEjPKij(ptr noundef nonnull align 1 dereferenceable(13) %10, i32 noundef %11, ptr noundef %14, i32 noundef %17)
  ret float %18
}