; Function Attrs: mustprogress uwtable
define hidden noundef float @hb_ot_metrics_get_variation(ptr nocapture noundef readonly %0, i32 noundef %1) local_unnamed_addr #0 {
  %3 = getelementptr inbounds i8, ptr %0, i64 32
  %4 = load ptr, ptr %3, align 8
  %5 = getelementptr inbounds i8, ptr %4, i64 256
  %6 = tail call noundef ptr @_ZNK16hb_lazy_loader_tIN2OT4MVARE22hb_table_lazy_loader_tIS1_Lj22ELb1EE9hb_face_tLj22E9hb_blob_tE10get_storedEv(ptr noundef nonnull align 8 dereferenceable(8) %5)
  %7 = getelementptr inbounds i8, ptr %6, i64 16
  %8 = load ptr, ptr %7, align 8
  %9 = getelementptr inbounds i8, ptr %6, i64 24
  %10 = load i32, ptr %9, align 8
  %11 = icmp ult i32 %10, 12
  %spec.select.i.i.i.i.i = select i1 %11, ptr @_hb_NullPool, ptr %8
  %12 = getelementptr inbounds i8, ptr %0, i64 128
  %13 = load ptr, ptr %12, align 8
  %14 = getelementptr inbounds i8, ptr %0, i64 120
  %15 = load i32, ptr %14, align 8
  %16 = tail call noundef float @_ZNK2OT4MVAR7get_varEjPKij(ptr noundef nonnull align 1 dereferenceable(13) %spec.select.i.i.i.i.i, i32 noundef %1, ptr noundef %13, i32 noundef %15)
  ret float %16
}